target datalayout = "e-m:e-p270:32:32-p271:32:32-p272:64:64-i64:64-i128:128-f80:128-n8:16:32:64-S128"
target triple = "x86_64-pc-linux-gnu"

%"class.o3dgc::Arithmetic_Codec" = type <{ ptr, ptr, ptr, i32, i32, i32, i32, i32, [4 x i8] }>

; Function Attrs: inlinehint mustprogress nounwind uwtable
define linkonce_odr hidden void @_ZN5o3dgc16Arithmetic_Codec19renorm_dec_intervalEv(ptr noundef nonnull align 8 dereferenceable(44) %0) #2 comdat align 2 {
  %2 = alloca ptr, align 8
  store ptr %0, ptr %2, align 8
  %3 = load ptr, ptr %2, align 8
  br label %4

4:                                                ; preds = %15, %1
  %5 = getelementptr inbounds nuw %"class.o3dgc::Arithmetic_Codec", ptr %3, i32 0, i32 4
  %6 = load i32, ptr %5, align 4
  %7 = shl i32 %6, 8
  %8 = getelementptr inbounds nuw %"class.o3dgc::Arithmetic_Codec", ptr %3, i32 0, i32 2
  %9 = load ptr, ptr %8, align 8
  %10 = getelementptr inbounds nuw i8, ptr %9, i32 1
  store ptr %10, ptr %8, align 8
  %11 = load i8, ptr %10, align 1
  %12 = zext i8 %11 to i32
  %13 = or i32 %7, %12
  %14 = getelementptr inbounds nuw %"class.o3dgc::Arithmetic_Codec", ptr %3, i32 0, i32 4
  store i32 %13, ptr %14, align 4
  br label %15

15:                                               ; preds = %4
  %16 = getelementptr inbounds nuw %"class.o3dgc::Arithmetic_Codec", ptr %3, i32 0, i32 5
  %17 = load i32, ptr %16, align 8
  %18 = shl i32 %17, 8
  store i32 %18, ptr %16, align 8
  %19 = icmp ult i32 %18, 16777216
  br i1 %19, label %4, label %20, !llvm.loop !6

20:                                               ; preds = %15
  ret void
}

; Function Attrs: mustprogress uwtable
define hidden noundef i32 @_ZN5o3dgc16Arithmetic_Codec7get_bitEv(ptr noundef nonnull align 8 dereferenceable(44) %0) #0 align 2 {
  %2 = alloca ptr, align 8
  %3 = alloca i32, align 4
  store ptr %0, ptr %2, align 8
  %4 = load ptr, ptr %2, align 8
  %5 = getelementptr inbounds nuw %"class.o3dgc::Arithmetic_Codec", ptr %4, i32 0, i32 5
  %6 = load i32, ptr %5, align 8
  %7 = lshr i32 %6, 1
  store i32 %7, ptr %5, align 8
  call void @llvm.lifetime.start.p0(i64 4, ptr %3) #12
  %8 = getelementptr inbounds nuw %"class.o3dgc::Arithmetic_Codec", ptr %4, i32 0, i32 4
  %9 = load i32, ptr %8, align 4
  %10 = getelementptr inbounds nuw %"class.o3dgc::Arithmetic_Codec", ptr %4, i32 0, i32 5
  %11 = load i32, ptr %10, align 8
  %12 = icmp uge i32 %9, %11
  %13 = zext i1 %12 to i32
  store i32 %13, ptr %3, align 4
  %14 = load i32, ptr %3, align 4
  %15 = icmp ne i32 %14, 0
  br i1 %15, label %16, label %22

16:                                               ; preds = %1
  %17 = getelementptr inbounds nuw %"class.o3dgc::Arithmetic_Codec", ptr %4, i32 0, i32 5
  %18 = load i32, ptr %17, align 8
  %19 = getelementptr inbounds nuw %"class.o3dgc::Arithmetic_Codec", ptr %4, i32 0, i32 4
  %20 = load i32, ptr %19, align 4
  %21 = sub i32 %20, %18
  store i32 %21, ptr %19, align 4
  br label %22

22:                                               ; preds = %16, %1
  %23 = getelementptr inbounds nuw %"class.o3dgc::Arithmetic_Codec", ptr %4, i32 0, i32 5
  %24 = load i32, ptr %23, align 8
  %25 = icmp ult i32 %24, 16777216
  br i1 %25, label %26, label %27

26:                                               ; preds = %22
  call void @_ZN5o3dgc16Arithmetic_Codec19renorm_dec_intervalEv(ptr noundef nonnull align 8 dereferenceable(44) %4)
  br label %27

27:                                               ; preds = %26, %22
  %28 = load i32, ptr %3, align 4
  call void @llvm.lifetime.end.p0(i64 4, ptr %3) #12
  ret i32 %28
}