; Function Attrs: mustprogress nofree norecurse nosync nounwind memory(read, argmem: readwrite, inaccessiblemem: none) uwtable
define hidden noundef range(i32 0, 2) i32 @_ZN5o3dgc16Arithmetic_Codec7get_bitEv(ptr noundef nonnull align 8 captures(none) dereferenceable(44) %0) local_unnamed_addr #1 align 2 {
  %2 = getelementptr inbounds nuw i8, ptr %0, i64 32
  %3 = load i32, ptr %2, align 8
  %4 = lshr i32 %3, 1
  store i32 %4, ptr %2, align 8
  %5 = getelementptr inbounds nuw i8, ptr %0, i64 28
  %6 = load i32, ptr %5, align 4
  %7 = icmp uge i32 %6, %4
  br i1 %7, label %8, label %10

8:                                                ; preds = %1
  %9 = sub nuw i32 %6, %4
  store i32 %9, ptr %5, align 4
  br label %10

10:                                               ; preds = %8, %1
  %.promoted.i = phi i32 [ %9, %8 ], [ %6, %1 ]
  %11 = icmp ult i32 %3, 33554432
  br i1 %11, label %12, label %_ZN5o3dgc16Arithmetic_Codec19renorm_dec_intervalEv.exit

12:                                               ; preds = %10
  %13 = getelementptr inbounds nuw i8, ptr %0, i64 16
  %.promoted1.i = load ptr, ptr %13, align 8
  br label %14

14:                                               ; preds = %14, %12
  %15 = phi i32 [ %23, %14 ], [ %4, %12 ]
  %16 = phi ptr [ %19, %14 ], [ %.promoted1.i, %12 ]
  %17 = phi i32 [ %22, %14 ], [ %.promoted.i, %12 ]
  %18 = shl i32 %17, 8
  %19 = getelementptr inbounds nuw i8, ptr %16, i64 1
  store ptr %19, ptr %13, align 8
  %20 = load i8, ptr %19, align 1
  %21 = zext i8 %20 to i32
  %22 = or disjoint i32 %18, %21
  store i32 %22, ptr %5, align 4
  %23 = shl nuw i32 %15, 8
  store i32 %23, ptr %2, align 8
  %24 = icmp ult i32 %15, 65536
  br i1 %24, label %14, label %_ZN5o3dgc16Arithmetic_Codec19renorm_dec_intervalEv.exit, !llvm.loop !6

_ZN5o3dgc16Arithmetic_Codec19renorm_dec_intervalEv.exit: ; preds = %14, %10
  %25 = zext i1 %7 to i32
  ret i32 %25
}